target datalayout = "e-m:e-p270:32:32-p271:32:32-p272:64:64-i64:64-i128:128-f80:128-n8:16:32:64-S128"
target triple = "x86_64-pc-linux-gnu"

; Function Attrs: nounwind uwtable
define internal i32 @mpi_get_digit(ptr noundef %0, i32 noundef %1, i8 noundef signext %2) #0 {
  %4 = alloca i32, align 4
  %5 = alloca ptr, align 8
  %6 = alloca i32, align 4
  %7 = alloca i8, align 1
  store ptr %0, ptr %5, align 8, !tbaa !25
  store i32 %1, ptr %6, align 4, !tbaa !19
  store i8 %2, ptr %7, align 1, !tbaa !22
  %8 = load ptr, ptr %5, align 8, !tbaa !25
  store i64 255, ptr %8, align 8, !tbaa !15
  %9 = load i8, ptr %7, align 1, !tbaa !22
  %10 = sext i8 %9 to i32
  %11 = icmp sge i32 %10, 48
  br i1 %11, label %12, label %22

12:                                               ; preds = %3
  %13 = load i8, ptr %7, align 1, !tbaa !22
  %14 = sext i8 %13 to i32
  %15 = icmp sle i32 %14, 57
  br i1 %15, label %16, label %22

16:                                               ; preds = %12
  %17 = load i8, ptr %7, align 1, !tbaa !22
  %18 = sext i8 %17 to i32
  %19 = sub nsw i32 %18, 48
  %20 = sext i32 %19 to i64
  %21 = load ptr, ptr %5, align 8, !tbaa !25
  store i64 %20, ptr %21, align 8, !tbaa !15
  br label %22

22:                                               ; preds = %16, %12, %3
  %23 = load i8, ptr %7, align 1, !tbaa !22
  %24 = sext i8 %23 to i32
  %25 = icmp sge i32 %24, 65
  br i1 %25, label %26, label %36

26:                                               ; preds = %22
  %27 = load i8, ptr %7, align 1, !tbaa !22
  %28 = sext i8 %27 to i32
  %29 = icmp sle i32 %28, 70
  br i1 %29, label %30, label %36

30:                                               ; preds = %26
  %31 = load i8, ptr %7, align 1, !tbaa !22
  %32 = sext i8 %31 to i32
  %33 = sub nsw i32 %32, 55
  %34 = sext i32 %33 to i64
  %35 = load ptr, ptr %5, align 8, !tbaa !25
  store i64 %34, ptr %35, align 8, !tbaa !15
  br label %36

36:                                               ; preds = %30, %26, %22
  %37 = load i8, ptr %7, align 1, !tbaa !22
  %38 = sext i8 %37 to i32
  %39 = icmp sge i32 %38, 97
  br i1 %39, label %40, label %50

40:                                               ; preds = %36
  %41 = load i8, ptr %7, align 1, !tbaa !22
  %42 = sext i8 %41 to i32
  %43 = icmp sle i32 %42, 102
  br i1 %43, label %44, label %50

44:                                               ; preds = %40
  %45 = load i8, ptr %7, align 1, !tbaa !22
  %46 = sext i8 %45 to i32
  %47 = sub nsw i32 %46, 87
  %48 = sext i32 %47 to i64
  %49 = load ptr, ptr %5, align 8, !tbaa !25
  store i64 %48, ptr %49, align 8, !tbaa !15
  br label %50

50:                                               ; preds = %44, %40, %36
  %51 = load ptr, ptr %5, align 8, !tbaa !25
  %52 = load i64, ptr %51, align 8, !tbaa !15
  %53 = load i32, ptr %6, align 4, !tbaa !19
  %54 = sext i32 %53 to i64
  %55 = icmp uge i64 %52, %54
  br i1 %55, label %56, label %57

56:                                               ; preds = %50
  store i32 -6, ptr %4, align 4
  br label %58

57:                                               ; preds = %50
  store i32 0, ptr %4, align 4
  br label %58

58:                                               ; preds = %57, %56
  %59 = load i32, ptr %4, align 4
  ret i32 %59
}

; Function Attrs: nounwind uwtable
define hidden i32 @mbedtls_mpi_read_file(ptr noundef %0, i32 noundef %1, ptr noundef %2) #0 {
  %4 = alloca i32, align 4
  %5 = alloca ptr, align 8
  %6 = alloca i32, align 4
  %7 = alloca ptr, align 8
  %8 = alloca i64, align 8
  %9 = alloca i64, align 8
  %10 = alloca ptr, align 8
  %11 = alloca [2484 x i8], align 16
  %12 = alloca i32, align 4
  store ptr %0, ptr %5, align 8, !tbaa !3
  store i32 %1, ptr %6, align 4, !tbaa !19
  store ptr %2, ptr %7, align 8, !tbaa !41
  call void @llvm.lifetime.start.p0(i64 8, ptr %8) #9
  call void @llvm.lifetime.start.p0(i64 8, ptr %9) #9
  call void @llvm.lifetime.start.p0(i64 8, ptr %10) #9
  call void @llvm.lifetime.start.p0(i64 2484, ptr %11) #9
  %13 = load i32, ptr %6, align 4, !tbaa !19
  %14 = icmp slt i32 %13, 2
  br i1 %14, label %18, label %15

15:                                               ; preds = %3
  %16 = load i32, ptr %6, align 4, !tbaa !19
  %17 = icmp sgt i32 %16, 16
  br i1 %17, label %18, label %19

18:                                               ; preds = %15, %3
  store i32 -4, ptr %4, align 4
  store i32 1, ptr %12, align 4
  br label %85

19:                                               ; preds = %15
  %20 = getelementptr inbounds [2484 x i8], ptr %11, i64 0, i64 0
  call void @llvm.memset.p0.i64(ptr align 16 %20, i8 0, i64 2484, i1 false)
  %21 = getelementptr inbounds [2484 x i8], ptr %11, i64 0, i64 0
  %22 = load ptr, ptr %7, align 8, !tbaa !41
  %23 = call ptr @fgets(ptr noundef %21, i32 noundef 2483, ptr noundef %22)
  %24 = icmp eq ptr %23, null
  br i1 %24, label %25, label %26

25:                                               ; preds = %19
  store i32 -2, ptr %4, align 4
  store i32 1, ptr %12, align 4
  br label %85

26:                                               ; preds = %19
  %27 = getelementptr inbounds [2484 x i8], ptr %11, i64 0, i64 0
  %28 = call i64 @strlen(ptr noundef %27) #11
  store i64 %28, ptr %9, align 8, !tbaa !15
  %29 = load i64, ptr %9, align 8, !tbaa !15
  %30 = icmp eq i64 %29, 2482
  br i1 %30, label %31, label %32

31:                                               ; preds = %26
  store i32 -8, ptr %4, align 4
  store i32 1, ptr %12, align 4
  br label %85

32:                                               ; preds = %26
  %33 = load i64, ptr %9, align 8, !tbaa !15
  %34 = icmp ugt i64 %33, 0
  br i1 %34, label %35, label %47

35:                                               ; preds = %32
  %36 = load i64, ptr %9, align 8, !tbaa !15
  %37 = sub i64 %36, 1
  %38 = getelementptr inbounds nuw [2484 x i8], ptr %11, i64 0, i64 %37
  %39 = load i8, ptr %38, align 1, !tbaa !22
  %40 = sext i8 %39 to i32
  %41 = icmp eq i32 %40, 10
  br i1 %41, label %42, label %47

42:                                               ; preds = %35
  %43 = load i64, ptr %9, align 8, !tbaa !15
  %44 = add i64 %43, -1
  store i64 %44, ptr %9, align 8, !tbaa !15
  %45 = load i64, ptr %9, align 8, !tbaa !15
  %46 = getelementptr inbounds nuw [2484 x i8], ptr %11, i64 0, i64 %45
  store i8 0, ptr %46, align 1, !tbaa !22
  br label %47

47:                                               ; preds = %42, %35, %32
  %48 = load i64, ptr %9, align 8, !tbaa !15
  %49 = icmp ugt i64 %48, 0
  br i1 %49, label %50, label %62

50:                                               ; preds = %47
  %51 = load i64, ptr %9, align 8, !tbaa !15
  %52 = sub i64 %51, 1
  %53 = getelementptr inbounds nuw [2484 x i8], ptr %11, i64 0, i64 %52
  %54 = load i8, ptr %53, align 1, !tbaa !22
  %55 = sext i8 %54 to i32
  %56 = icmp eq i32 %55, 13
  br i1 %56, label %57, label %62

57:                                               ; preds = %50
  %58 = load i64, ptr %9, align 8, !tbaa !15
  %59 = add i64 %58, -1
  store i64 %59, ptr %9, align 8, !tbaa !15
  %60 = load i64, ptr %9, align 8, !tbaa !15
  %61 = getelementptr inbounds nuw [2484 x i8], ptr %11, i64 0, i64 %60
  store i8 0, ptr %61, align 1, !tbaa !22
  br label %62

62:                                               ; preds = %57, %50, %47
  %63 = getelementptr inbounds [2484 x i8], ptr %11, i64 0, i64 0
  %64 = load i64, ptr %9, align 8, !tbaa !15
  %65 = getelementptr inbounds nuw i8, ptr %63, i64 %64
  store ptr %65, ptr %10, align 8, !tbaa !30
  br label %66

66:                                               ; preds = %78, %62
  %67 = load ptr, ptr %10, align 8, !tbaa !30
  %68 = getelementptr inbounds i8, ptr %67, i32 -1
  store ptr %68, ptr %10, align 8, !tbaa !30
  %69 = getelementptr inbounds [2484 x i8], ptr %11, i64 0, i64 0
  %70 = icmp ugt ptr %67, %69
  br i1 %70, label %71, label %79

71:                                               ; preds = %66
  %72 = load i32, ptr %6, align 4, !tbaa !19
  %73 = load ptr, ptr %10, align 8, !tbaa !30
  %74 = load i8, ptr %73, align 1, !tbaa !22
  %75 = call i32 @mpi_get_digit(ptr noundef %8, i32 noundef %72, i8 noundef signext %74)
  %76 = icmp ne i32 %75, 0
  br i1 %76, label %77, label %78

77:                                               ; preds = %71
  br label %79

78:                                               ; preds = %71
  br label %66, !llvm.loop !43

79:                                               ; preds = %77, %66
  %80 = load ptr, ptr %5, align 8, !tbaa !3
  %81 = load i32, ptr %6, align 4, !tbaa !19
  %82 = load ptr, ptr %10, align 8, !tbaa !30
  %83 = getelementptr inbounds i8, ptr %82, i64 1
  %84 = call i32 @mbedtls_mpi_read_string(ptr noundef %80, i32 noundef %81, ptr noundef %83)
  store i32 %84, ptr %4, align 4
  store i32 1, ptr %12, align 4
  br label %85

85:                                               ; preds = %79, %31, %25, %18
  call void @llvm.lifetime.end.p0(i64 2484, ptr %11) #9
  call void @llvm.lifetime.end.p0(i64 8, ptr %10) #9
  call void @llvm.lifetime.end.p0(i64 8, ptr %9) #9
  call void @llvm.lifetime.end.p0(i64 8, ptr %8) #9
  %86 = load i32, ptr %4, align 4
  ret i32 %86
}