; Function Attrs: nounwind uwtable
define hidden range(i32 -16, 1) i32 @mbedtls_mpi_read_file(ptr noundef %0, i32 noundef %1, ptr noundef captures(none) %2) local_unnamed_addr #0 {
  %4 = alloca [2484 x i8], align 16
  call void @llvm.lifetime.start.p0(i64 2484, ptr nonnull %4) #16
  %5 = add i32 %1, -17
  %or.cond = icmp ult i32 %5, -15
  br i1 %or.cond, label %40, label %6

6:                                                ; preds = %3
  call void @llvm.memset.p0.i64(ptr noundef nonnull align 16 dereferenceable(2484) %4, i8 0, i64 2484, i1 false)
  %7 = call ptr @fgets(ptr noundef nonnull %4, i32 noundef 2483, ptr noundef %2)
  %8 = icmp eq ptr %7, null
  br i1 %8, label %40, label %9

9:                                                ; preds = %6
  %10 = call i64 @strlen(ptr noundef nonnull dereferenceable(1) %4) #18
  switch i64 %10, label %11 [
    i64 2482, label %40
    i64 0, label %.thread
  ]

11:                                               ; preds = %9
  %12 = add i64 %10, -1
  %13 = getelementptr inbounds nuw [2484 x i8], ptr %4, i64 0, i64 %12
  %14 = load i8, ptr %13, align 1, !tbaa !24
  %15 = icmp eq i8 %14, 10
  br i1 %15, label %16, label %.thread28

16:                                               ; preds = %11
  store i8 0, ptr %13, align 1, !tbaa !24
  %.not24 = icmp eq i64 %12, 0
  br i1 %.not24, label %.thread, label %..thread28_crit_edge

..thread28_crit_edge:                             ; preds = %16
  %.pre = add i64 %10, -2
  %.phi.trans.insert = getelementptr inbounds nuw [2484 x i8], ptr %4, i64 0, i64 %.pre
  %.pre32 = load i8, ptr %.phi.trans.insert, align 1, !tbaa !24
  br label %.thread28

.thread28:                                        ; preds = %..thread28_crit_edge, %11
  %17 = phi i8 [ %.pre32, %..thread28_crit_edge ], [ %14, %11 ]
  %.pre-phi = phi i64 [ %.pre, %..thread28_crit_edge ], [ %12, %11 ]
  %.02031 = phi i64 [ %12, %..thread28_crit_edge ], [ %10, %11 ]
  %18 = icmp eq i8 %17, 13
  br i1 %18, label %19, label %.thread

19:                                               ; preds = %.thread28
  %20 = getelementptr inbounds nuw [2484 x i8], ptr %4, i64 0, i64 %.pre-phi
  store i8 0, ptr %20, align 1, !tbaa !24
  br label %.thread

.thread:                                          ; preds = %9, %19, %.thread28, %16
  %.1 = phi i64 [ %.pre-phi, %19 ], [ %.02031, %.thread28 ], [ 0, %16 ], [ %10, %9 ]
  %21 = getelementptr inbounds nuw i8, ptr %4, i64 %.1
  %22 = zext nneg i32 %1 to i64
  br label %23

23:                                               ; preds = %25, %.thread
  %.0 = phi ptr [ %21, %.thread ], [ %26, %25 ]
  %24 = icmp ugt ptr %.0, %4
  br i1 %24, label %25, label %38

25:                                               ; preds = %23
  %26 = getelementptr inbounds i8, ptr %.0, i64 -1
  %27 = load i8, ptr %26, align 1, !tbaa !24
  %28 = sext i8 %27 to i32
  %29 = add i8 %27, -48
  %or.cond.i = icmp ult i8 %29, 10
  %30 = add nsw i32 %28, -48
  %31 = zext nneg i32 %30 to i64
  %storemerge.i = select i1 %or.cond.i, i64 %31, i64 255
  %32 = add i8 %27, -65
  %or.cond5.i = icmp ult i8 %32, 6
  %33 = add nsw i32 %28, -55
  %34 = zext nneg i32 %33 to i64
  %storemerge24.i = select i1 %or.cond5.i, i64 %34, i64 %storemerge.i
  %35 = add i8 %27, -97
  %or.cond8.i = icmp ult i8 %35, 6
  %36 = add nsw i32 %28, -87
  %37 = zext nneg i32 %36 to i64
  %storemerge25.i = select i1 %or.cond8.i, i64 %37, i64 %storemerge24.i
  %.not.i = icmp samesign ult i64 %storemerge25.i, %22
  br i1 %.not.i, label %23, label %38, !llvm.loop !33

38:                                               ; preds = %25, %23
  %39 = call i32 @mbedtls_mpi_read_string(ptr noundef %0, i32 noundef %1, ptr noundef nonnull %.0)
  br label %40

40:                                               ; preds = %9, %6, %3, %38
  %.021 = phi i32 [ %39, %38 ], [ -4, %3 ], [ -2, %6 ], [ -8, %9 ]
  call void @llvm.lifetime.end.p0(i64 2484, ptr nonnull %4) #16
  ret i32 %.021
}